target datalayout = "e-m:e-p270:32:32-p271:32:32-p272:64:64-i64:64-i128:128-f80:128-n8:16:32:64-S128"
target triple = "x86_64-pc-linux-gnu"

%struct._tls_hs_fragment_key = type { ptr, i32, i8 }

; Function Attrs: nounwind null_pointer_is_valid sspstrong uwtable
define internal i32 @tls_hs_fragment_equal(ptr noundef %0, ptr noundef %1) #9 {
  %3 = alloca ptr, align 8
  %4 = alloca ptr, align 8
  %5 = alloca ptr, align 8
  %6 = alloca ptr, align 8
  store ptr %0, ptr %3, align 8
  store ptr %1, ptr %4, align 8
  call void @llvm.lifetime.start.p0(i64 8, ptr %5) #18
  %7 = load ptr, ptr %3, align 8
  store ptr %7, ptr %5, align 8
  call void @llvm.lifetime.start.p0(i64 8, ptr %6) #18
  %8 = load ptr, ptr %4, align 8
  store ptr %8, ptr %6, align 8
  %9 = load ptr, ptr %5, align 8
  %10 = getelementptr inbounds nuw %struct._tls_hs_fragment_key, ptr %9, i32 0, i32 1
  %11 = load i32, ptr %10, align 8
  %12 = load ptr, ptr %6, align 8
  %13 = getelementptr inbounds nuw %struct._tls_hs_fragment_key, ptr %12, i32 0, i32 1
  %14 = load i32, ptr %13, align 8
  %15 = icmp eq i32 %11, %14
  br i1 %15, label %16, label %36

16:                                               ; preds = %2
  %17 = load ptr, ptr %5, align 8
  %18 = getelementptr inbounds nuw %struct._tls_hs_fragment_key, ptr %17, i32 0, i32 0
  %19 = load ptr, ptr %18, align 8
  %20 = load ptr, ptr %6, align 8
  %21 = getelementptr inbounds nuw %struct._tls_hs_fragment_key, ptr %20, i32 0, i32 0
  %22 = load ptr, ptr %21, align 8
  %23 = icmp eq ptr %19, %22
  br i1 %23, label %24, label %36

24:                                               ; preds = %16
  %25 = load ptr, ptr %5, align 8
  %26 = getelementptr inbounds nuw %struct._tls_hs_fragment_key, ptr %25, i32 0, i32 2
  %27 = load i8, ptr %26, align 4, !range !6, !noundef !7
  %28 = trunc i8 %27 to i1
  %29 = zext i1 %28 to i32
  %30 = load ptr, ptr %6, align 8
  %31 = getelementptr inbounds nuw %struct._tls_hs_fragment_key, ptr %30, i32 0, i32 2
  %32 = load i8, ptr %31, align 4, !range !6, !noundef !7
  %33 = trunc i8 %32 to i1
  %34 = zext i1 %33 to i32
  %35 = icmp eq i32 %29, %34
  br label %36

36:                                               ; preds = %24, %16, %2
  %37 = phi i1 [ false, %16 ], [ false, %2 ], [ %35, %24 ]
  %38 = zext i1 %37 to i32
  call void @llvm.lifetime.end.p0(i64 8, ptr %6) #18
  call void @llvm.lifetime.end.p0(i64 8, ptr %5) #18
  ret i32 %38
}