; Function Attrs: mustprogress nofree norecurse nosync nounwind null_pointer_is_valid sspstrong willreturn memory(argmem: read) uwtable
define internal range(i32 0, 2) i32 @tls_hs_fragment_equal(ptr noundef readonly captures(none) %0, ptr noundef readonly captures(none) %1) #9 {
  %3 = getelementptr inbounds nuw i8, ptr %0, i64 8
  %4 = load i32, ptr %3, align 8
  %5 = getelementptr inbounds nuw i8, ptr %1, i64 8
  %6 = load i32, ptr %5, align 8
  %7 = icmp eq i32 %4, %6
  br i1 %7, label %8, label %19

8:                                                ; preds = %2
  %9 = load ptr, ptr %0, align 8
  %10 = load ptr, ptr %1, align 8
  %11 = icmp eq ptr %9, %10
  br i1 %11, label %12, label %19

12:                                               ; preds = %8
  %13 = getelementptr inbounds nuw i8, ptr %0, i64 12
  %14 = load i8, ptr %13, align 4, !range !10, !noundef !11
  %15 = getelementptr inbounds nuw i8, ptr %1, i64 12
  %16 = load i8, ptr %15, align 4, !range !10, !noundef !11
  %17 = icmp eq i8 %14, %16
  %18 = zext i1 %17 to i32
  br label %19

19:                                               ; preds = %12, %8, %2
  %20 = phi i32 [ 0, %8 ], [ 0, %2 ], [ %18, %12 ]
  ret i32 %20
}